target datalayout = "e-m:e-p270:32:32-p271:32:32-p272:64:64-i64:64-i128:128-f80:128-n8:16:32:64-S128"
target triple = "x86_64-pc-linux-gnu"

%struct.autoload_const = type { %struct.ccan_list_node, i64, i64, i64, i64, i32, i64, i32 }
%struct.ccan_list_node = type { ptr, ptr }

; Function Attrs: nounwind sspstrong uwtable
define internal void @autoload_const_mark(ptr noundef %0) #0 {
  %2 = alloca ptr, align 8
  %3 = alloca ptr, align 8
  store ptr %0, ptr %2, align 8, !tbaa !40
  call void @llvm.lifetime.start.p0(i64 8, ptr %3) #30
  %4 = load ptr, ptr %2, align 8, !tbaa !40
  store ptr %4, ptr %3, align 8, !tbaa !142
  %5 = load ptr, ptr %3, align 8, !tbaa !142
  %6 = getelementptr inbounds nuw %struct.autoload_const, ptr %5, i32 0, i32 2
  %7 = load i64, ptr %6, align 8, !tbaa !144
  call void @rb_gc_mark_movable(i64 noundef %7)
  %8 = load ptr, ptr %3, align 8, !tbaa !142
  %9 = getelementptr inbounds nuw %struct.autoload_const, ptr %8, i32 0, i32 1
  %10 = load i64, ptr %9, align 8, !tbaa !151
  call void @rb_gc_mark_movable(i64 noundef %10)
  %11 = load ptr, ptr %3, align 8, !tbaa !142
  %12 = getelementptr inbounds nuw %struct.autoload_const, ptr %11, i32 0, i32 4
  %13 = load i64, ptr %12, align 8, !tbaa !149
  call void @rb_gc_mark_movable(i64 noundef %13)
  %14 = load ptr, ptr %3, align 8, !tbaa !142
  %15 = getelementptr inbounds nuw %struct.autoload_const, ptr %14, i32 0, i32 6
  %16 = load i64, ptr %15, align 8, !tbaa !197
  call void @rb_gc_mark_movable(i64 noundef %16)
  call void @llvm.lifetime.end.p0(i64 8, ptr %3) #30
  ret void
}