; Function Attrs: nounwind sspstrong uwtable
define internal void @autoload_const_mark(ptr noundef readonly captures(none) %0) #0 {
  %2 = getelementptr inbounds nuw i8, ptr %0, i64 24
  %3 = load i64, ptr %2, align 8, !tbaa !154
  tail call void @rb_gc_mark_movable(i64 noundef %3) #27
  %4 = getelementptr inbounds nuw i8, ptr %0, i64 16
  %5 = load i64, ptr %4, align 8, !tbaa !159
  tail call void @rb_gc_mark_movable(i64 noundef %5) #27
  %6 = getelementptr inbounds nuw i8, ptr %0, i64 40
  %7 = load i64, ptr %6, align 8, !tbaa !157
  tail call void @rb_gc_mark_movable(i64 noundef %7) #27
  %8 = getelementptr inbounds nuw i8, ptr %0, i64 56
  %9 = load i64, ptr %8, align 8, !tbaa !204
  tail call void @rb_gc_mark_movable(i64 noundef %9) #27
  ret void
}